target datalayout = "e-m:e-p270:32:32-p271:32:32-p272:64:64-i64:64-i128:128-f80:128-n8:16:32:64-S128"
target triple = "x86_64-unknown-linux-gnu"

%"class.icu_75::TimeZoneNames::MatchInfoCollection" = type { ptr, ptr }

; Function Attrs: mustprogress nounwind uwtable
define internal noundef signext i8 @_ZL9U_FAILURE10UErrorCode(i32 noundef %code) #0 {
entry:
  %code.addr = alloca i32, align 4
  store i32 %code, ptr %code.addr, align 4
  %0 = load i32, ptr %code.addr, align 4
  %cmp = icmp sgt i32 %0, 0
  %conv = zext i1 %cmp to i8
  ret i8 %conv
}

; Function Attrs: mustprogress uwtable
define noundef ptr @_ZN6icu_7513TimeZoneNames19MatchInfoCollection7matchesER10UErrorCode(ptr noundef nonnull align 8 dereferenceable(16) %this, ptr noundef nonnull align 4 dereferenceable(4) %status) #1 align 2 personality ptr @__gxx_personality_v0 {
entry:
  %retval = alloca ptr, align 8
  %this.addr = alloca ptr, align 8
  %status.addr = alloca ptr, align 8
  %saved-rvalue = alloca ptr, align 8
  %cleanup.cond = alloca i1, align 1
  %exn.slot = alloca ptr, align 8
  %ehselector.slot = alloca i32, align 4
  store ptr %this, ptr %this.addr, align 8
  store ptr %status, ptr %status.addr, align 8
  %this1 = load ptr, ptr %this.addr, align 8
  %0 = load ptr, ptr %status.addr, align 8
  %1 = load i32, ptr %0, align 4
  %call = call noundef signext i8 @_ZL9U_FAILURE10UErrorCode(i32 noundef %1)
  %tobool = icmp ne i8 %call, 0
  br i1 %tobool, label %if.then, label %if.end

if.then:                                          ; preds = %entry
  store ptr null, ptr %retval, align 8
  br label %return

if.end:                                           ; preds = %entry
  %fMatches = getelementptr inbounds %"class.icu_75::TimeZoneNames::MatchInfoCollection", ptr %this1, i32 0, i32 1
  %2 = load ptr, ptr %fMatches, align 8
  %cmp = icmp ne ptr %2, null
  br i1 %cmp, label %if.then2, label %if.end4

if.then2:                                         ; preds = %if.end
  %fMatches3 = getelementptr inbounds %"class.icu_75::TimeZoneNames::MatchInfoCollection", ptr %this1, i32 0, i32 1
  %3 = load ptr, ptr %fMatches3, align 8
  store ptr %3, ptr %retval, align 8
  br label %return

if.end4:                                          ; preds = %if.end
  %call5 = call noundef ptr @_ZN6icu_757UMemorynwEm(i64 noundef 40) #9
  %new.isnull = icmp eq ptr %call5, null
  store i1 false, ptr %cleanup.cond, align 1
  br i1 %new.isnull, label %new.cont, label %new.notnull

new.notnull:                                      ; preds = %if.end4
  store ptr %call5, ptr %saved-rvalue, align 8
  store i1 true, ptr %cleanup.cond, align 1
  %4 = load ptr, ptr %status.addr, align 8
  invoke void @_ZN6icu_757UVectorC1EPFvPvEPFa8UElementS4_ER10UErrorCode(ptr noundef nonnull align 8 dereferenceable(40) %call5, ptr noundef @_ZN6icu_75L15deleteMatchInfoEPv, ptr noundef null, ptr noundef nonnull align 4 dereferenceable(4) %4)
          to label %invoke.cont unwind label %lpad

invoke.cont:                                      ; preds = %new.notnull
  br label %new.cont

new.cont:                                         ; preds = %invoke.cont, %if.end4
  %5 = phi ptr [ %call5, %invoke.cont ], [ null, %if.end4 ]
  %fMatches6 = getelementptr inbounds %"class.icu_75::TimeZoneNames::MatchInfoCollection", ptr %this1, i32 0, i32 1
  store ptr %5, ptr %fMatches6, align 8
  %fMatches7 = getelementptr inbounds %"class.icu_75::TimeZoneNames::MatchInfoCollection", ptr %this1, i32 0, i32 1
  %6 = load ptr, ptr %fMatches7, align 8
  %cmp8 = icmp eq ptr %6, null
  br i1 %cmp8, label %if.then9, label %if.else

if.then9:                                         ; preds = %new.cont
  %7 = load ptr, ptr %status.addr, align 8
  store i32 7, ptr %7, align 4
  br label %if.end16

lpad:                                             ; preds = %new.notnull
  %8 = landingpad { ptr, i32 }
          cleanup
  %9 = extractvalue { ptr, i32 } %8, 0
  store ptr %9, ptr %exn.slot, align 8
  %10 = extractvalue { ptr, i32 } %8, 1
  store i32 %10, ptr %ehselector.slot, align 4
  %cleanup.is_active = load i1, ptr %cleanup.cond, align 1
  br i1 %cleanup.is_active, label %cleanup.action, label %cleanup.done

cleanup.action:                                   ; preds = %lpad
  %11 = load ptr, ptr %saved-rvalue, align 8
  call void @_ZN6icu_757UMemorydlEPv(ptr noundef %11) #9
  br label %cleanup.done

cleanup.done:                                     ; preds = %cleanup.action, %lpad
  br label %eh.resume

if.else:                                          ; preds = %new.cont
  %12 = load ptr, ptr %status.addr, align 8
  %13 = load i32, ptr %12, align 4
  %call10 = call noundef signext i8 @_ZL9U_FAILURE10UErrorCode(i32 noundef %13)
  %tobool11 = icmp ne i8 %call10, 0
  br i1 %tobool11, label %if.then12, label %if.end15

if.then12:                                        ; preds = %if.else
  %fMatches13 = getelementptr inbounds %"class.icu_75::TimeZoneNames::MatchInfoCollection", ptr %this1, i32 0, i32 1
  %14 = load ptr, ptr %fMatches13, align 8
  %isnull = icmp eq ptr %14, null
  br i1 %isnull, label %delete.end, label %delete.notnull

delete.notnull:                                   ; preds = %if.then12
  %vtable = load ptr, ptr %14, align 8
  %vfn = getelementptr inbounds ptr, ptr %vtable, i64 1
  %15 = load ptr, ptr %vfn, align 8
  call void %15(ptr noundef nonnull align 8 dereferenceable(40) %14) #9
  br label %delete.end

delete.end:                                       ; preds = %delete.notnull, %if.then12
  %fMatches14 = getelementptr inbounds %"class.icu_75::TimeZoneNames::MatchInfoCollection", ptr %this1, i32 0, i32 1
  store ptr null, ptr %fMatches14, align 8
  br label %if.end15

if.end15:                                         ; preds = %delete.end, %if.else
  br label %if.end16

if.end16:                                         ; preds = %if.end15, %if.then9
  %fMatches17 = getelementptr inbounds %"class.icu_75::TimeZoneNames::MatchInfoCollection", ptr %this1, i32 0, i32 1
  %16 = load ptr, ptr %fMatches17, align 8
  store ptr %16, ptr %retval, align 8
  br label %return

return:                                           ; preds = %if.end16, %if.then2, %if.then
  %17 = load ptr, ptr %retval, align 8
  ret ptr %17

eh.resume:                                        ; preds = %cleanup.done
  %exn = load ptr, ptr %exn.slot, align 8
  %sel = load i32, ptr %ehselector.slot, align 4
  %lpad.val = insertvalue { ptr, i32 } poison, ptr %exn, 0
  %lpad.val18 = insertvalue { ptr, i32 } %lpad.val, i32 %sel, 1
  resume { ptr, i32 } %lpad.val18
}