; Function Attrs: mustprogress uwtable
define noundef ptr @_ZN6icu_7513TimeZoneNames19MatchInfoCollection7matchesER10UErrorCode(ptr nocapture noundef nonnull align 8 dereferenceable(16) %this, ptr noundef nonnull align 4 dereferenceable(4) %status) local_unnamed_addr #1 align 2 personality ptr @__gxx_personality_v0 {
entry:
  %0 = load i32, ptr %status, align 4
  %cmp.i = icmp slt i32 %0, 1
  br i1 %cmp.i, label %if.end, label %return

if.end:                                           ; preds = %entry
  %fMatches = getelementptr inbounds i8, ptr %this, i64 8
  %1 = load ptr, ptr %fMatches, align 8
  %cmp.not = icmp eq ptr %1, null
  br i1 %cmp.not, label %if.end4, label %return

if.end4:                                          ; preds = %if.end
  %call5 = tail call noundef ptr @_ZN6icu_757UMemorynwEm(i64 noundef 40) #17
  %new.isnull = icmp eq ptr %call5, null
  br i1 %new.isnull, label %if.then9, label %new.notnull

new.notnull:                                      ; preds = %if.end4
  invoke void @_ZN6icu_757UVectorC1EPFvPvEPFa8UElementS4_ER10UErrorCode(ptr noundef nonnull align 8 dereferenceable(40) %call5, ptr noundef nonnull @_ZN6icu_75L15deleteMatchInfoEPv, ptr noundef null, ptr noundef nonnull align 4 dereferenceable(4) %status)
          to label %if.else unwind label %lpad

if.then9:                                         ; preds = %if.end4
  store ptr null, ptr %fMatches, align 8
  store i32 7, ptr %status, align 4
  %.pre = load ptr, ptr %fMatches, align 8
  br label %return

lpad:                                             ; preds = %new.notnull
  %2 = landingpad { ptr, i32 }
          cleanup
  tail call void @_ZN6icu_757UMemorydlEPv(ptr noundef nonnull %call5) #17
  resume { ptr, i32 } %2

if.else:                                          ; preds = %new.notnull
  store ptr %call5, ptr %fMatches, align 8
  %3 = load i32, ptr %status, align 4
  %cmp.i5 = icmp slt i32 %3, 1
  br i1 %cmp.i5, label %return, label %delete.end

delete.end:                                       ; preds = %if.else
  %vtable = load ptr, ptr %call5, align 8
  %vfn = getelementptr inbounds i8, ptr %vtable, i64 8
  %4 = load ptr, ptr %vfn, align 8
  tail call void %4(ptr noundef nonnull align 8 dereferenceable(40) %call5) #17
  store ptr null, ptr %fMatches, align 8
  br label %return

return:                                           ; preds = %if.then9, %delete.end, %if.else, %if.end, %entry
  %retval.0 = phi ptr [ null, %entry ], [ %1, %if.end ], [ %call5, %if.else ], [ null, %delete.end ], [ %.pre, %if.then9 ]
  ret ptr %retval.0
}